; Function Attrs: mustprogress nounwind uwtable
define void @_ZN9grpc_core14WorkSerializerD2Ev(ptr noundef nonnull align 8 captures(none) dereferenceable(8) %0) unnamed_addr #5 align 2 personality ptr @__gxx_personality_v0 {
  %2 = load ptr, ptr %0, align 8, !tbaa !78
  %.not.i = icmp eq ptr %2, null
  br i1 %.not.i, label %_ZNSt10unique_ptrIN9grpc_core14WorkSerializer18WorkSerializerImplENS0_16OrphanableDeleteEED2Ev.exit, label %3

3:                                                ; preds = %1
  %4 = load ptr, ptr %2, align 16, !tbaa !33
  %5 = load ptr, ptr %4, align 8
  invoke void %5(ptr noundef nonnull align 16 dereferenceable(176) %2)
          to label %_ZNSt10unique_ptrIN9grpc_core14WorkSerializer18WorkSerializerImplENS0_16OrphanableDeleteEED2Ev.exit unwind label %6

6:                                                ; preds = %3
  %7 = landingpad { ptr, i32 }
          catch ptr null
  %8 = extractvalue { ptr, i32 } %7, 0
  tail call void @__clang_call_terminate(ptr %8) #26
  unreachable

_ZNSt10unique_ptrIN9grpc_core14WorkSerializer18WorkSerializerImplENS0_16OrphanableDeleteEED2Ev.exit: ; preds = %1, %3
  store ptr null, ptr %0, align 8, !tbaa !78
  ret void
}